; Function Attrs: nounwind uwtable
define dso_local void @tuplestore_putvalues(ptr noundef %0, ptr noundef %1, ptr noundef %2, ptr noundef %3) local_unnamed_addr #0 {
  %5 = getelementptr inbounds nuw i8, ptr %0, i64 56
  %6 = load ptr, ptr %5, align 8
  %7 = load ptr, ptr @CurrentMemoryContext, align 8
  store ptr %6, ptr @CurrentMemoryContext, align 8
  %8 = tail call ptr @heap_form_minimal_tuple(ptr noundef %1, ptr noundef %2, ptr noundef %3) #9
  %9 = tail call i64 @GetMemoryChunkSpace(ptr noundef %8) #9
  %10 = getelementptr inbounds nuw i8, ptr %0, i64 24
  %11 = load i64, ptr %10, align 8
  %12 = sub i64 %11, %9
  store i64 %12, ptr %10, align 8
  tail call fastcc void @tuplestore_puttuple_common(ptr noundef %0, ptr noundef %8)
  store ptr %7, ptr @CurrentMemoryContext, align 8
  ret void
}